   1               		.file	"main.c"
   2               	__SP_H__ = 0x3e
   3               	__SP_L__ = 0x3d
   4               	__SREG__ = 0x3f
   5               	__tmp_reg__ = 0
   6               	__zero_reg__ = 1
   7               		.text
   8               	.Ltext0:
   9               		.cfi_sections	.debug_frame
  10               		.section	.text.setup_device,"ax",@progbits
  11               	.global	setup_device
  13               	setup_device:
  14               	.LFB8:
  15               		.file 1 "main.c"
   1:main.c        **** /*
   2:main.c        ****  * main.c
   3:main.c        ****  *
   4:main.c        ****  *  Created on: 8 May 2015
   5:main.c        ****  *      Author: Jai Spicer
   6:main.c        ****  */
   7:main.c        **** 
   8:main.c        **** #define F_CPU 8000000UL
   9:main.c        **** #define CPU_PRESCALE(n) (CLKPR = 0x80, CLKPR = (n))
  10:main.c        **** #define CPU_8MHz 0x01
  11:main.c        **** 
  12:main.c        **** #include <util/delay.h>
  13:main.c        **** 
  14:main.c        **** #include "graphics.h"
  15:main.c        **** #include "friendly_ports.h"
  16:main.c        **** #include "cpu_speed.h"
  17:main.c        **** #include "byte.h"
  18:main.c        **** #include "sprite.h"
  19:main.c        **** 
  20:main.c        **** #include "start_screen.h"
  21:main.c        **** #include "screen.h"
  22:main.c        **** #include "lives.h"
  23:main.c        **** #include "score.h"
  24:main.c        **** #include "hero.h"
  25:main.c        **** #include "zombies.h"
  26:main.c        **** 
  27:main.c        **** //#include "pit.h"
  28:main.c        **** //#include "items.h"
  29:main.c        **** 
  30:main.c        **** void zombie_collision( void );
  31:main.c        **** void setup_device(void);
  32:main.c        **** void pit_collision( void );
  33:main.c        **** 
  34:main.c        **** int main() {
  35:main.c        **** 	setup_device();
  36:main.c        **** 	setup_start_screen();
  37:main.c        **** 
  38:main.c        **** 	screen_lines();
  39:main.c        **** 	lives_setup();
  40:main.c        **** 	score_setup();
  41:main.c        **** 
  42:main.c        **** //	start_pit();
  43:main.c        **** //	sword_setup();
  44:main.c        **** //	grenades_setup();
  45:main.c        **** 
  46:main.c        **** 	start_hero();
  47:main.c        **** 	start_zombies ();
  48:main.c        **** 
  49:main.c        **** 	clear();
  50:main.c        **** 
  51:main.c        **** 	int zombie_update = 0;
  52:main.c        **** 	int score_update = 0;
  53:main.c        **** 	while ( lives > 0 ) {
  54:main.c        **** 		clear();
  55:main.c        **** 		screen_lines();
  56:main.c        ****     	lives_setup();
  57:main.c        ****     	score_setup();
  58:main.c        **** 
  59:main.c        **** //    	start_pit();
  60:main.c        **** //    	sword_setup();
  61:main.c        **** //    	grenades_setup();
  62:main.c        **** 
  63:main.c        **** //    	move_hero ( hero_prt );
  64:main.c        **** //    	draw_sprite ( hero_prt );
  65:main.c        **** 
  66:main.c        ****     	update_hero();
  67:main.c        **** 
  68:main.c        **** 		if ( zombie_update == 10 ) {
  69:main.c        **** 			update_zombies ( z );
  70:main.c        **** //			zombie_updater();
  71:main.c        **** 			zombie_update = 0;
  72:main.c        **** 		}
  73:main.c        **** 		if ( score_update == 50 ) {
  74:main.c        **** 			update_score_time();
  75:main.c        **** 			score_update = 0;
  76:main.c        **** 		}
  77:main.c        **** //		zombie_collision();
  78:main.c        **** 		zombie_updater();
  79:main.c        **** //		draw_zombies ( z );
  80:main.c        **** 		refresh();
  81:main.c        **** 		zombie_update++;
  82:main.c        **** 		score_update++;
  83:main.c        **** 		_delay_ms( 100 );
  84:main.c        **** 	}
  85:main.c        **** 
  86:main.c        **** 	clear();
  87:main.c        **** 	draw_string("GAME OVER", 2,3);
  88:main.c        **** 
  89:main.c        **** 
  90:main.c        **** 	refresh();
  91:main.c        **** 	return 0;
  92:main.c        **** 
  93:main.c        **** }
  94:main.c        **** 
  95:main.c        **** void setup_device() {
  16               		.loc 1 95 0
  17               		.cfi_startproc
  18               	/* prologue: function */
  19               	/* frame size = 0 */
  20               	/* stack size = 0 */
  21               	.L__stack_usage = 0
  96:main.c        **** 	CPU_PRESCALE(CPU_8MHz);
  22               		.loc 1 96 0
  23 0000 E1E6      		ldi r30,lo8(97)
  24 0002 F0E0      		ldi r31,0
  25 0004 80E8      		ldi r24,lo8(-128)
  26 0006 8083      		st Z,r24
  27 0008 81E0      		ldi r24,lo8(1)
  28 000a 8083      		st Z,r24
  97:main.c        **** 
  98:main.c        **** 	DDRB = ( LED0 | LED1 ) & ~( SW0 | SW1 ); // Output to LEDs, input from switches.
  29               		.loc 1 98 0
  30 000c 8CE0      		ldi r24,lo8(12)
  31 000e 84B9      		out 0x4,r24
  99:main.c        **** 	DDRD = LED2; // Turn on the little yellow LED.
  32               		.loc 1 99 0
  33 0010 80E4      		ldi r24,lo8(64)
  34 0012 8AB9      		out 0xa,r24
 100:main.c        **** 
 101:main.c        **** 	// Turn everything off to start with
 102:main.c        **** 	PORTB = 0x00;
  35               		.loc 1 102 0
  36 0014 15B8      		out 0x5,__zero_reg__
 103:main.c        **** 	PORTD = 0x00;
  37               		.loc 1 103 0
  38 0016 1BB8      		out 0xb,__zero_reg__
 104:main.c        **** 
 105:main.c        **** 	LCDInitialise(LCD_DEFAULT_CONTRAST);
  39               		.loc 1 105 0
  40 0018 8FE3      		ldi r24,lo8(63)
  41 001a 0E94 0000 		call LCDInitialise
  42               	.LVL0:
 106:main.c        **** 	clear();
  43               		.loc 1 106 0
  44 001e 0C94 0000 		jmp clear
  45               	.LVL1:
  46               		.cfi_endproc
  47               	.LFE8:
  49               		.section	.rodata.str1.1,"aMS",@progbits,1
  50               	.LC0:
  51 0000 4741 4D45 		.string	"GAME OVER"
  51      204F 5645 
  51      5200 
  52               		.section	.text.startup.main,"ax",@progbits
  53               	.global	main
  55               	main:
  56               	.LFB7:
  34:main.c        **** int main() {
  57               		.loc 1 34 0
  58               		.cfi_startproc
  59 0000 0F93      		push r16
  60               	.LCFI0:
  61               		.cfi_def_cfa_offset 3
  62               		.cfi_offset 16, -2
  63 0002 1F93      		push r17
  64               	.LCFI1:
  65               		.cfi_def_cfa_offset 4
  66               		.cfi_offset 17, -3
  67 0004 CF93      		push r28
  68               	.LCFI2:
  69               		.cfi_def_cfa_offset 5
  70               		.cfi_offset 28, -4
  71 0006 DF93      		push r29
  72               	.LCFI3:
  73               		.cfi_def_cfa_offset 6
  74               		.cfi_offset 29, -5
  75               	/* prologue: function */
  76               	/* frame size = 0 */
  77               	/* stack size = 4 */
  78               	.L__stack_usage = 4
  35:main.c        **** 	setup_device();
  79               		.loc 1 35 0
  80 0008 0E94 0000 		call setup_device
  81               	.LVL2:
  36:main.c        **** 	setup_start_screen();
  82               		.loc 1 36 0
  83 000c 0E94 0000 		call setup_start_screen
  84               	.LVL3:
  38:main.c        **** 	screen_lines();
  85               		.loc 1 38 0
  86 0010 0E94 0000 		call screen_lines
  87               	.LVL4:
  39:main.c        **** 	lives_setup();
  88               		.loc 1 39 0
  89 0014 0E94 0000 		call lives_setup
  90               	.LVL5:
  40:main.c        **** 	score_setup();
  91               		.loc 1 40 0
  92 0018 0E94 0000 		call score_setup
  93               	.LVL6:
  46:main.c        **** 	start_hero();
  94               		.loc 1 46 0
  95 001c 0E94 0000 		call start_hero
  96               	.LVL7:
  47:main.c        **** 	start_zombies ();
  97               		.loc 1 47 0
  98 0020 0E94 0000 		call start_zombies
  99               	.LVL8:
  49:main.c        **** 	clear();
 100               		.loc 1 49 0
 101 0024 0E94 0000 		call clear
 102               	.LVL9:
  52:main.c        **** 	int score_update = 0;
 103               		.loc 1 52 0
 104 0028 00E0      		ldi r16,0
 105 002a 10E0      		ldi r17,0
  51:main.c        **** 	int zombie_update = 0;
 106               		.loc 1 51 0
 107 002c C0E0      		ldi r28,0
 108 002e D0E0      		ldi r29,0
  53:main.c        **** 	while ( lives > 0 ) {
 109               		.loc 1 53 0
 110 0030 00C0      		rjmp .L3
 111               	.LVL10:
 112               	.L6:
  54:main.c        **** 		clear();
 113               		.loc 1 54 0
 114 0032 0E94 0000 		call clear
 115               	.LVL11:
  55:main.c        **** 		screen_lines();
 116               		.loc 1 55 0
 117 0036 0E94 0000 		call screen_lines
 118               	.LVL12:
  56:main.c        ****     	lives_setup();
 119               		.loc 1 56 0
 120 003a 0E94 0000 		call lives_setup
 121               	.LVL13:
  57:main.c        ****     	score_setup();
 122               		.loc 1 57 0
 123 003e 0E94 0000 		call score_setup
 124               	.LVL14:
  66:main.c        ****     	update_hero();
 125               		.loc 1 66 0
 126 0042 0E94 0000 		call update_hero
 127               	.LVL15:
  68:main.c        **** 		if ( zombie_update == 10 ) {
 128               		.loc 1 68 0
 129 0046 CA30      		cpi r28,10
 130 0048 D105      		cpc r29,__zero_reg__
 131 004a 01F4      		brne .L4
  69:main.c        **** 			update_zombies ( z );
 132               		.loc 1 69 0
 133 004c 8091 0000 		lds r24,z
 134 0050 9091 0000 		lds r25,z+1
 135 0054 0E94 0000 		call update_zombies
 136               	.LVL16:
  71:main.c        **** 			zombie_update = 0;
 137               		.loc 1 71 0
 138 0058 C0E0      		ldi r28,0
 139 005a D0E0      		ldi r29,0
 140               	.LVL17:
 141               	.L4:
  73:main.c        **** 		if ( score_update == 50 ) {
 142               		.loc 1 73 0
 143 005c 0233      		cpi r16,50
 144 005e 1105      		cpc r17,__zero_reg__
 145 0060 01F4      		brne .L5
  74:main.c        **** 			update_score_time();
 146               		.loc 1 74 0
 147 0062 0E94 0000 		call update_score_time
 148               	.LVL18:
  75:main.c        **** 			score_update = 0;
 149               		.loc 1 75 0
 150 0066 00E0      		ldi r16,0
 151 0068 10E0      		ldi r17,0
 152               	.LVL19:
 153               	.L5:
  78:main.c        **** 		zombie_updater();
 154               		.loc 1 78 0
 155 006a 0E94 0000 		call zombie_updater
 156               	.LVL20:
  80:main.c        **** 		refresh();
 157               		.loc 1 80 0
 158 006e 0E94 0000 		call refresh
 159               	.LVL21:
  81:main.c        **** 		zombie_update++;
 160               		.loc 1 81 0
 161 0072 2196      		adiw r28,1
 162               	.LVL22:
  82:main.c        **** 		score_update++;
 163               		.loc 1 82 0
 164 0074 0F5F      		subi r16,-1
 165 0076 1F4F      		sbci r17,-1
 166               	.LVL23:
 167               	.LBB4:
 168               	.LBB5:
 169               		.file 2 "/usr/local/bin/../lib/gcc/avr/4.7.2/../../../../avr/include/util/delay.h"
   1:/usr/local/bin/../lib/gcc/avr/4.7.2/../../../../avr/include/util/delay.h **** /* Copyright (c) 2002, Marek Michalkiewicz
   2:/usr/local/bin/../lib/gcc/avr/4.7.2/../../../../avr/include/util/delay.h ****    Copyright (c) 2004,2005,2007 Joerg Wunsch
   3:/usr/local/bin/../lib/gcc/avr/4.7.2/../../../../avr/include/util/delay.h ****    Copyright (c) 2007  Florin-Viorel Petrov
   4:/usr/local/bin/../lib/gcc/avr/4.7.2/../../../../avr/include/util/delay.h ****    All rights reserved.
   5:/usr/local/bin/../lib/gcc/avr/4.7.2/../../../../avr/include/util/delay.h **** 
   6:/usr/local/bin/../lib/gcc/avr/4.7.2/../../../../avr/include/util/delay.h ****    Redistribution and use in source and binary forms, with or without
   7:/usr/local/bin/../lib/gcc/avr/4.7.2/../../../../avr/include/util/delay.h ****    modification, are permitted provided that the following conditions are met:
   8:/usr/local/bin/../lib/gcc/avr/4.7.2/../../../../avr/include/util/delay.h **** 
   9:/usr/local/bin/../lib/gcc/avr/4.7.2/../../../../avr/include/util/delay.h ****    * Redistributions of source code must retain the above copyright
  10:/usr/local/bin/../lib/gcc/avr/4.7.2/../../../../avr/include/util/delay.h ****      notice, this list of conditions and the following disclaimer.
  11:/usr/local/bin/../lib/gcc/avr/4.7.2/../../../../avr/include/util/delay.h **** 
  12:/usr/local/bin/../lib/gcc/avr/4.7.2/../../../../avr/include/util/delay.h ****    * Redistributions in binary form must reproduce the above copyright
  13:/usr/local/bin/../lib/gcc/avr/4.7.2/../../../../avr/include/util/delay.h ****      notice, this list of conditions and the following disclaimer in
  14:/usr/local/bin/../lib/gcc/avr/4.7.2/../../../../avr/include/util/delay.h ****      the documentation and/or other materials provided with the
  15:/usr/local/bin/../lib/gcc/avr/4.7.2/../../../../avr/include/util/delay.h ****      distribution.
  16:/usr/local/bin/../lib/gcc/avr/4.7.2/../../../../avr/include/util/delay.h **** 
  17:/usr/local/bin/../lib/gcc/avr/4.7.2/../../../../avr/include/util/delay.h ****    * Neither the name of the copyright holders nor the names of
  18:/usr/local/bin/../lib/gcc/avr/4.7.2/../../../../avr/include/util/delay.h ****      contributors may be used to endorse or promote products derived
  19:/usr/local/bin/../lib/gcc/avr/4.7.2/../../../../avr/include/util/delay.h ****      from this software without specific prior written permission.
  20:/usr/local/bin/../lib/gcc/avr/4.7.2/../../../../avr/include/util/delay.h **** 
  21:/usr/local/bin/../lib/gcc/avr/4.7.2/../../../../avr/include/util/delay.h ****   THIS SOFTWARE IS PROVIDED BY THE COPYRIGHT HOLDERS AND CONTRIBUTORS "AS IS"
  22:/usr/local/bin/../lib/gcc/avr/4.7.2/../../../../avr/include/util/delay.h ****   AND ANY EXPRESS OR IMPLIED WARRANTIES, INCLUDING, BUT NOT LIMITED TO, THE
  23:/usr/local/bin/../lib/gcc/avr/4.7.2/../../../../avr/include/util/delay.h ****   IMPLIED WARRANTIES OF MERCHANTABILITY AND FITNESS FOR A PARTICULAR PURPOSE
  24:/usr/local/bin/../lib/gcc/avr/4.7.2/../../../../avr/include/util/delay.h ****   ARE DISCLAIMED. IN NO EVENT SHALL THE COPYRIGHT OWNER OR CONTRIBUTORS BE
  25:/usr/local/bin/../lib/gcc/avr/4.7.2/../../../../avr/include/util/delay.h ****   LIABLE FOR ANY DIRECT, INDIRECT, INCIDENTAL, SPECIAL, EXEMPLARY, OR
  26:/usr/local/bin/../lib/gcc/avr/4.7.2/../../../../avr/include/util/delay.h ****   CONSEQUENTIAL DAMAGES (INCLUDING, BUT NOT LIMITED TO, PROCUREMENT OF
  27:/usr/local/bin/../lib/gcc/avr/4.7.2/../../../../avr/include/util/delay.h ****   SUBSTITUTE GOODS OR SERVICES; LOSS OF USE, DATA, OR PROFITS; OR BUSINESS
  28:/usr/local/bin/../lib/gcc/avr/4.7.2/../../../../avr/include/util/delay.h ****   INTERRUPTION) HOWEVER CAUSED AND ON ANY THEORY OF LIABILITY, WHETHER IN
  29:/usr/local/bin/../lib/gcc/avr/4.7.2/../../../../avr/include/util/delay.h ****   CONTRACT, STRICT LIABILITY, OR TORT (INCLUDING NEGLIGENCE OR OTHERWISE)
  30:/usr/local/bin/../lib/gcc/avr/4.7.2/../../../../avr/include/util/delay.h ****   ARISING IN ANY WAY OUT OF THE USE OF THIS SOFTWARE, EVEN IF ADVISED OF THE
  31:/usr/local/bin/../lib/gcc/avr/4.7.2/../../../../avr/include/util/delay.h ****   POSSIBILITY OF SUCH DAMAGE. */
  32:/usr/local/bin/../lib/gcc/avr/4.7.2/../../../../avr/include/util/delay.h **** 
  33:/usr/local/bin/../lib/gcc/avr/4.7.2/../../../../avr/include/util/delay.h **** /* $Id: delay.h.in 2251 2011-09-14 08:20:33Z joerg_wunsch $ */
  34:/usr/local/bin/../lib/gcc/avr/4.7.2/../../../../avr/include/util/delay.h **** 
  35:/usr/local/bin/../lib/gcc/avr/4.7.2/../../../../avr/include/util/delay.h **** #ifndef _UTIL_DELAY_H_
  36:/usr/local/bin/../lib/gcc/avr/4.7.2/../../../../avr/include/util/delay.h **** #define _UTIL_DELAY_H_ 1
  37:/usr/local/bin/../lib/gcc/avr/4.7.2/../../../../avr/include/util/delay.h **** 
  38:/usr/local/bin/../lib/gcc/avr/4.7.2/../../../../avr/include/util/delay.h **** #ifndef __HAS_DELAY_CYCLES
  39:/usr/local/bin/../lib/gcc/avr/4.7.2/../../../../avr/include/util/delay.h **** #define __HAS_DELAY_CYCLES 1
  40:/usr/local/bin/../lib/gcc/avr/4.7.2/../../../../avr/include/util/delay.h **** #endif
  41:/usr/local/bin/../lib/gcc/avr/4.7.2/../../../../avr/include/util/delay.h **** 
  42:/usr/local/bin/../lib/gcc/avr/4.7.2/../../../../avr/include/util/delay.h **** #include <inttypes.h>
  43:/usr/local/bin/../lib/gcc/avr/4.7.2/../../../../avr/include/util/delay.h **** #include <util/delay_basic.h>
  44:/usr/local/bin/../lib/gcc/avr/4.7.2/../../../../avr/include/util/delay.h **** #include <math.h>
  45:/usr/local/bin/../lib/gcc/avr/4.7.2/../../../../avr/include/util/delay.h **** 
  46:/usr/local/bin/../lib/gcc/avr/4.7.2/../../../../avr/include/util/delay.h **** /** \file */
  47:/usr/local/bin/../lib/gcc/avr/4.7.2/../../../../avr/include/util/delay.h **** /** \defgroup util_delay <util/delay.h>: Convenience functions for busy-wait delay loops
  48:/usr/local/bin/../lib/gcc/avr/4.7.2/../../../../avr/include/util/delay.h ****     \code
  49:/usr/local/bin/../lib/gcc/avr/4.7.2/../../../../avr/include/util/delay.h ****     #define F_CPU 1000000UL  // 1 MHz
  50:/usr/local/bin/../lib/gcc/avr/4.7.2/../../../../avr/include/util/delay.h ****     //#define F_CPU 14.7456E6
  51:/usr/local/bin/../lib/gcc/avr/4.7.2/../../../../avr/include/util/delay.h ****     #include <util/delay.h>
  52:/usr/local/bin/../lib/gcc/avr/4.7.2/../../../../avr/include/util/delay.h ****     \endcode
  53:/usr/local/bin/../lib/gcc/avr/4.7.2/../../../../avr/include/util/delay.h **** 
  54:/usr/local/bin/../lib/gcc/avr/4.7.2/../../../../avr/include/util/delay.h ****     \note As an alternative method, it is possible to pass the
  55:/usr/local/bin/../lib/gcc/avr/4.7.2/../../../../avr/include/util/delay.h ****     F_CPU macro down to the compiler from the Makefile.
  56:/usr/local/bin/../lib/gcc/avr/4.7.2/../../../../avr/include/util/delay.h ****     Obviously, in that case, no \c \#define statement should be
  57:/usr/local/bin/../lib/gcc/avr/4.7.2/../../../../avr/include/util/delay.h ****     used.
  58:/usr/local/bin/../lib/gcc/avr/4.7.2/../../../../avr/include/util/delay.h **** 
  59:/usr/local/bin/../lib/gcc/avr/4.7.2/../../../../avr/include/util/delay.h ****     The functions in this header file are wrappers around the basic
  60:/usr/local/bin/../lib/gcc/avr/4.7.2/../../../../avr/include/util/delay.h ****     busy-wait functions from <util/delay_basic.h>.  They are meant as
  61:/usr/local/bin/../lib/gcc/avr/4.7.2/../../../../avr/include/util/delay.h ****     convenience functions where actual time values can be specified
  62:/usr/local/bin/../lib/gcc/avr/4.7.2/../../../../avr/include/util/delay.h ****     rather than a number of cycles to wait for.  The idea behind is
  63:/usr/local/bin/../lib/gcc/avr/4.7.2/../../../../avr/include/util/delay.h ****     that compile-time constant expressions will be eliminated by
  64:/usr/local/bin/../lib/gcc/avr/4.7.2/../../../../avr/include/util/delay.h ****     compiler optimization so floating-point expressions can be used
  65:/usr/local/bin/../lib/gcc/avr/4.7.2/../../../../avr/include/util/delay.h ****     to calculate the number of delay cycles needed based on the CPU
  66:/usr/local/bin/../lib/gcc/avr/4.7.2/../../../../avr/include/util/delay.h ****     frequency passed by the macro F_CPU.
  67:/usr/local/bin/../lib/gcc/avr/4.7.2/../../../../avr/include/util/delay.h **** 
  68:/usr/local/bin/../lib/gcc/avr/4.7.2/../../../../avr/include/util/delay.h ****     \note In order for these functions to work as intended, compiler
  69:/usr/local/bin/../lib/gcc/avr/4.7.2/../../../../avr/include/util/delay.h ****     optimizations <em>must</em> be enabled, and the delay time
  70:/usr/local/bin/../lib/gcc/avr/4.7.2/../../../../avr/include/util/delay.h ****     <em>must</em> be an expression that is a known constant at
  71:/usr/local/bin/../lib/gcc/avr/4.7.2/../../../../avr/include/util/delay.h ****     compile-time.  If these requirements are not met, the resulting
  72:/usr/local/bin/../lib/gcc/avr/4.7.2/../../../../avr/include/util/delay.h ****     delay will be much longer (and basically unpredictable), and
  73:/usr/local/bin/../lib/gcc/avr/4.7.2/../../../../avr/include/util/delay.h ****     applications that otherwise do not use floating-point calculations
  74:/usr/local/bin/../lib/gcc/avr/4.7.2/../../../../avr/include/util/delay.h ****     will experience severe code bloat by the floating-point library
  75:/usr/local/bin/../lib/gcc/avr/4.7.2/../../../../avr/include/util/delay.h ****     routines linked into the application.
  76:/usr/local/bin/../lib/gcc/avr/4.7.2/../../../../avr/include/util/delay.h **** 
  77:/usr/local/bin/../lib/gcc/avr/4.7.2/../../../../avr/include/util/delay.h ****     The functions available allow the specification of microsecond, and
  78:/usr/local/bin/../lib/gcc/avr/4.7.2/../../../../avr/include/util/delay.h ****     millisecond delays directly, using the application-supplied macro
  79:/usr/local/bin/../lib/gcc/avr/4.7.2/../../../../avr/include/util/delay.h ****     F_CPU as the CPU clock frequency (in Hertz).
  80:/usr/local/bin/../lib/gcc/avr/4.7.2/../../../../avr/include/util/delay.h **** 
  81:/usr/local/bin/../lib/gcc/avr/4.7.2/../../../../avr/include/util/delay.h **** */
  82:/usr/local/bin/../lib/gcc/avr/4.7.2/../../../../avr/include/util/delay.h **** 
  83:/usr/local/bin/../lib/gcc/avr/4.7.2/../../../../avr/include/util/delay.h **** #if !defined(__DOXYGEN__)
  84:/usr/local/bin/../lib/gcc/avr/4.7.2/../../../../avr/include/util/delay.h **** static inline void _delay_us(double __us) __attribute__((always_inline));
  85:/usr/local/bin/../lib/gcc/avr/4.7.2/../../../../avr/include/util/delay.h **** static inline void _delay_ms(double __ms) __attribute__((always_inline));
  86:/usr/local/bin/../lib/gcc/avr/4.7.2/../../../../avr/include/util/delay.h **** #endif
  87:/usr/local/bin/../lib/gcc/avr/4.7.2/../../../../avr/include/util/delay.h **** 
  88:/usr/local/bin/../lib/gcc/avr/4.7.2/../../../../avr/include/util/delay.h **** #ifndef F_CPU
  89:/usr/local/bin/../lib/gcc/avr/4.7.2/../../../../avr/include/util/delay.h **** /* prevent compiler error by supplying a default */
  90:/usr/local/bin/../lib/gcc/avr/4.7.2/../../../../avr/include/util/delay.h **** # warning "F_CPU not defined for <util/delay.h>"
  91:/usr/local/bin/../lib/gcc/avr/4.7.2/../../../../avr/include/util/delay.h **** # define F_CPU 1000000UL
  92:/usr/local/bin/../lib/gcc/avr/4.7.2/../../../../avr/include/util/delay.h **** #endif
  93:/usr/local/bin/../lib/gcc/avr/4.7.2/../../../../avr/include/util/delay.h **** 
  94:/usr/local/bin/../lib/gcc/avr/4.7.2/../../../../avr/include/util/delay.h **** #ifndef __OPTIMIZE__
  95:/usr/local/bin/../lib/gcc/avr/4.7.2/../../../../avr/include/util/delay.h **** # warning "Compiler optimizations disabled; functions from <util/delay.h> won't work as designed"
  96:/usr/local/bin/../lib/gcc/avr/4.7.2/../../../../avr/include/util/delay.h **** #endif
  97:/usr/local/bin/../lib/gcc/avr/4.7.2/../../../../avr/include/util/delay.h **** 
  98:/usr/local/bin/../lib/gcc/avr/4.7.2/../../../../avr/include/util/delay.h **** #if __HAS_DELAY_CYCLES && defined(__OPTIMIZE__) && \
  99:/usr/local/bin/../lib/gcc/avr/4.7.2/../../../../avr/include/util/delay.h ****   !defined(__DELAY_BACKWARD_COMPATIBLE__) &&	   \
 100:/usr/local/bin/../lib/gcc/avr/4.7.2/../../../../avr/include/util/delay.h ****   __STDC_HOSTED__
 101:/usr/local/bin/../lib/gcc/avr/4.7.2/../../../../avr/include/util/delay.h **** #  include <math.h>
 102:/usr/local/bin/../lib/gcc/avr/4.7.2/../../../../avr/include/util/delay.h **** #endif
 103:/usr/local/bin/../lib/gcc/avr/4.7.2/../../../../avr/include/util/delay.h **** 
 104:/usr/local/bin/../lib/gcc/avr/4.7.2/../../../../avr/include/util/delay.h **** /**
 105:/usr/local/bin/../lib/gcc/avr/4.7.2/../../../../avr/include/util/delay.h ****    \ingroup util_delay
 106:/usr/local/bin/../lib/gcc/avr/4.7.2/../../../../avr/include/util/delay.h **** 
 107:/usr/local/bin/../lib/gcc/avr/4.7.2/../../../../avr/include/util/delay.h ****    Perform a delay of \c __ms milliseconds, using _delay_loop_2().
 108:/usr/local/bin/../lib/gcc/avr/4.7.2/../../../../avr/include/util/delay.h **** 
 109:/usr/local/bin/../lib/gcc/avr/4.7.2/../../../../avr/include/util/delay.h ****    The macro F_CPU is supposed to be defined to a
 110:/usr/local/bin/../lib/gcc/avr/4.7.2/../../../../avr/include/util/delay.h ****    constant defining the CPU clock frequency (in Hertz).
 111:/usr/local/bin/../lib/gcc/avr/4.7.2/../../../../avr/include/util/delay.h **** 
 112:/usr/local/bin/../lib/gcc/avr/4.7.2/../../../../avr/include/util/delay.h ****    The maximal possible delay is 262.14 ms / F_CPU in MHz.
 113:/usr/local/bin/../lib/gcc/avr/4.7.2/../../../../avr/include/util/delay.h **** 
 114:/usr/local/bin/../lib/gcc/avr/4.7.2/../../../../avr/include/util/delay.h ****    When the user request delay which exceed the maximum possible one,
 115:/usr/local/bin/../lib/gcc/avr/4.7.2/../../../../avr/include/util/delay.h ****    _delay_ms() provides a decreased resolution functionality. In this
 116:/usr/local/bin/../lib/gcc/avr/4.7.2/../../../../avr/include/util/delay.h ****    mode _delay_ms() will work with a resolution of 1/10 ms, providing
 117:/usr/local/bin/../lib/gcc/avr/4.7.2/../../../../avr/include/util/delay.h ****    delays up to 6.5535 seconds (independent from CPU frequency).  The
 118:/usr/local/bin/../lib/gcc/avr/4.7.2/../../../../avr/include/util/delay.h ****    user will not be informed about decreased resolution.
 119:/usr/local/bin/../lib/gcc/avr/4.7.2/../../../../avr/include/util/delay.h **** 
 120:/usr/local/bin/../lib/gcc/avr/4.7.2/../../../../avr/include/util/delay.h ****    If the avr-gcc toolchain has __builtin_avr_delay_cycles(unsigned long)
 121:/usr/local/bin/../lib/gcc/avr/4.7.2/../../../../avr/include/util/delay.h ****    support, maximal possible delay is 4294967.295 ms/ F_CPU in MHz. For
 122:/usr/local/bin/../lib/gcc/avr/4.7.2/../../../../avr/include/util/delay.h ****    values greater than the maximal possible delay, overflows results in
 123:/usr/local/bin/../lib/gcc/avr/4.7.2/../../../../avr/include/util/delay.h ****    no delay i.e., 0ms.
 124:/usr/local/bin/../lib/gcc/avr/4.7.2/../../../../avr/include/util/delay.h **** 
 125:/usr/local/bin/../lib/gcc/avr/4.7.2/../../../../avr/include/util/delay.h ****    Conversion of __us into clock cycles may not always result in integer.
 126:/usr/local/bin/../lib/gcc/avr/4.7.2/../../../../avr/include/util/delay.h ****    By default, the clock cycles rounded up to next integer. This ensures that
 127:/usr/local/bin/../lib/gcc/avr/4.7.2/../../../../avr/include/util/delay.h ****    the user gets atleast __us microseconds of delay.
 128:/usr/local/bin/../lib/gcc/avr/4.7.2/../../../../avr/include/util/delay.h **** 
 129:/usr/local/bin/../lib/gcc/avr/4.7.2/../../../../avr/include/util/delay.h ****    Alternatively, user can define __DELAY_ROUND_DOWN__ and __DELAY_ROUND_CLOSEST__
 130:/usr/local/bin/../lib/gcc/avr/4.7.2/../../../../avr/include/util/delay.h ****    to round down and round to closest integer.
 131:/usr/local/bin/../lib/gcc/avr/4.7.2/../../../../avr/include/util/delay.h **** 
 132:/usr/local/bin/../lib/gcc/avr/4.7.2/../../../../avr/include/util/delay.h ****    Note: The new implementation of _delay_ms(double __ms) with 
 133:/usr/local/bin/../lib/gcc/avr/4.7.2/../../../../avr/include/util/delay.h ****     __builtin_avr_delay_cycles(unsigned long) support is not backward compatible. 
 134:/usr/local/bin/../lib/gcc/avr/4.7.2/../../../../avr/include/util/delay.h ****    User can define __DELAY_BACKWARD_COMPATIBLE__ to get a backward compatible delay.
 135:/usr/local/bin/../lib/gcc/avr/4.7.2/../../../../avr/include/util/delay.h ****    Also, the backward compatible
 136:/usr/local/bin/../lib/gcc/avr/4.7.2/../../../../avr/include/util/delay.h ****    algorithm will be chosen if the code is compiled in a <em>freestanding
 137:/usr/local/bin/../lib/gcc/avr/4.7.2/../../../../avr/include/util/delay.h ****    environment</em> (GCC option \c -ffreestanding), as the math functions
 138:/usr/local/bin/../lib/gcc/avr/4.7.2/../../../../avr/include/util/delay.h ****    required for rounding are not available to the compiler then.
 139:/usr/local/bin/../lib/gcc/avr/4.7.2/../../../../avr/include/util/delay.h **** 
 140:/usr/local/bin/../lib/gcc/avr/4.7.2/../../../../avr/include/util/delay.h ****  */
 141:/usr/local/bin/../lib/gcc/avr/4.7.2/../../../../avr/include/util/delay.h **** void
 142:/usr/local/bin/../lib/gcc/avr/4.7.2/../../../../avr/include/util/delay.h **** _delay_ms(double __ms)
 143:/usr/local/bin/../lib/gcc/avr/4.7.2/../../../../avr/include/util/delay.h **** {
 144:/usr/local/bin/../lib/gcc/avr/4.7.2/../../../../avr/include/util/delay.h **** 	uint16_t __ticks;
 145:/usr/local/bin/../lib/gcc/avr/4.7.2/../../../../avr/include/util/delay.h **** 	double __tmp ; 
 146:/usr/local/bin/../lib/gcc/avr/4.7.2/../../../../avr/include/util/delay.h **** #if __HAS_DELAY_CYCLES && defined(__OPTIMIZE__) && \
 147:/usr/local/bin/../lib/gcc/avr/4.7.2/../../../../avr/include/util/delay.h ****   !defined(__DELAY_BACKWARD_COMPATIBLE__) &&	   \
 148:/usr/local/bin/../lib/gcc/avr/4.7.2/../../../../avr/include/util/delay.h ****   __STDC_HOSTED__
 149:/usr/local/bin/../lib/gcc/avr/4.7.2/../../../../avr/include/util/delay.h **** 	uint32_t __ticks_dc;
 150:/usr/local/bin/../lib/gcc/avr/4.7.2/../../../../avr/include/util/delay.h **** 	extern void __builtin_avr_delay_cycles(unsigned long);
 151:/usr/local/bin/../lib/gcc/avr/4.7.2/../../../../avr/include/util/delay.h **** 	__tmp = ((F_CPU) / 1e3) * __ms;
 152:/usr/local/bin/../lib/gcc/avr/4.7.2/../../../../avr/include/util/delay.h **** 
 153:/usr/local/bin/../lib/gcc/avr/4.7.2/../../../../avr/include/util/delay.h **** 	#if defined(__DELAY_ROUND_DOWN__)
 154:/usr/local/bin/../lib/gcc/avr/4.7.2/../../../../avr/include/util/delay.h **** 		__ticks_dc = (uint32_t)fabs(__tmp);
 155:/usr/local/bin/../lib/gcc/avr/4.7.2/../../../../avr/include/util/delay.h **** 
 156:/usr/local/bin/../lib/gcc/avr/4.7.2/../../../../avr/include/util/delay.h **** 	#elif defined(__DELAY_ROUND_CLOSEST__)
 157:/usr/local/bin/../lib/gcc/avr/4.7.2/../../../../avr/include/util/delay.h **** 		__ticks_dc = (uint32_t)(fabs(__tmp)+0.5);
 158:/usr/local/bin/../lib/gcc/avr/4.7.2/../../../../avr/include/util/delay.h **** 
 159:/usr/local/bin/../lib/gcc/avr/4.7.2/../../../../avr/include/util/delay.h **** 	#else
 160:/usr/local/bin/../lib/gcc/avr/4.7.2/../../../../avr/include/util/delay.h **** 		//round up by default
 161:/usr/local/bin/../lib/gcc/avr/4.7.2/../../../../avr/include/util/delay.h **** 		__ticks_dc = (uint32_t)(ceil(fabs(__tmp)));
 162:/usr/local/bin/../lib/gcc/avr/4.7.2/../../../../avr/include/util/delay.h **** 	#endif
 163:/usr/local/bin/../lib/gcc/avr/4.7.2/../../../../avr/include/util/delay.h **** 
 164:/usr/local/bin/../lib/gcc/avr/4.7.2/../../../../avr/include/util/delay.h **** 	__builtin_avr_delay_cycles(__ticks_dc);
 170               		.loc 2 164 0
 171 0078 2FEF      		ldi r18,lo8(159999)
 172 007a 80E7      		ldi r24,hi8(159999)
 173 007c 92E0      		ldi r25,hlo8(159999)
 174 007e 2150      		1: subi r18,1
 175 0080 8040      		sbci r24,0
 176 0082 9040      		sbci r25,0
 177 0084 01F4      		brne 1b
 178 0086 00C0      		rjmp .
 179 0088 0000      		nop
 180               	.LVL24:
 181               	.L3:
 182               	.LBE5:
 183               	.LBE4:
  53:main.c        **** 	while ( lives > 0 ) {
 184               		.loc 1 53 0 discriminator 1
 185 008a 8091 0000 		lds r24,lives
 186 008e 9091 0000 		lds r25,lives+1
 187 0092 1816      		cp __zero_reg__,r24
 188 0094 1906      		cpc __zero_reg__,r25
 189 0096 04F0      		brlt .L6
  86:main.c        **** 	clear();
 190               		.loc 1 86 0
 191 0098 0E94 0000 		call clear
 192               	.LVL25:
  87:main.c        **** 	draw_string("GAME OVER", 2,3);
 193               		.loc 1 87 0
 194 009c 43E0      		ldi r20,lo8(3)
 195 009e 62E0      		ldi r22,lo8(2)
 196 00a0 80E0      		ldi r24,lo8(.LC0)
 197 00a2 90E0      		ldi r25,hi8(.LC0)
 198 00a4 0E94 0000 		call draw_string
 199               	.LVL26:
  90:main.c        **** 	refresh();
 200               		.loc 1 90 0
 201 00a8 0E94 0000 		call refresh
 202               	.LVL27:
  93:main.c        **** }
 203               		.loc 1 93 0
 204 00ac 80E0      		ldi r24,0
 205 00ae 90E0      		ldi r25,0
 206               	/* epilogue start */
 207 00b0 DF91      		pop r29
 208 00b2 CF91      		pop r28
 209               	.LVL28:
 210 00b4 1F91      		pop r17
 211 00b6 0F91      		pop r16
 212               	.LVL29:
 213 00b8 0895      		ret
 214               		.cfi_endproc
 215               	.LFE7:
 217               		.comm	z,2,1
 218               		.comm	zombies,168,1
 219               		.comm	hero,21,1
 220               		.text
 221               	.Letext0:
 222               		.file 3 "/usr/local/bin/../lib/gcc/avr/4.7.2/../../../../avr/include/stdint.h"
 223               		.file 4 "../teensy_graphics/byte.h"
 224               		.file 5 "../teensy_graphics/sprite.h"
 225               		.file 6 "../teensy_graphics/ascii_font.h"
 226               		.file 7 "lives.h"
 227               		.file 8 "hero.h"
 228               		.file 9 "zombies.h"
 229               		.file 10 "../teensy_graphics/graphics.h"
 230               		.file 11 "start_screen.h"
 231               		.file 12 "screen.h"
 232               		.file 13 "score.h"
 233               		.file 14 "../teensy_graphics/lcd.h"