   1               		.file	"zombies.c"
   2               	__SP_H__ = 0x3e
   3               	__SP_L__ = 0x3d
   4               	__SREG__ = 0x3f
   5               	__tmp_reg__ = 0
   6               	__zero_reg__ = 1
   7               		.text
   8               	.Ltext0:
   9               		.cfi_sections	.debug_frame
  10               		.section	.text.section_selector,"ax",@progbits
  11               	.global	section_selector
  13               	section_selector:
  14               	.LFB3:
  15               		.file 1 "zombies.c"
   1:zombies.c     **** /*
   2:zombies.c     ****  * zombies.c
   3:zombies.c     ****  *
   4:zombies.c     ****  *  Created on: 9 May 2015
   5:zombies.c     ****  *      Author: Jai Spicer
   6:zombies.c     ****  */
   7:zombies.c     **** 
   8:zombies.c     **** 
   9:zombies.c     **** #include "sprite.h"
  10:zombies.c     **** #include "graphics.h"
  11:zombies.c     **** #include "friendly_ports.h"
  12:zombies.c     **** 
  13:zombies.c     **** #include "zombies.h"
  14:zombies.c     **** 
  15:zombies.c     **** void setup_zombies(
  16:zombies.c     **** 	Sprite zombies[],
  17:zombies.c     **** 	byte *zbitmap[],
  18:zombies.c     **** 	byte width[],
  19:zombies.c     **** 	byte height[]
  20:zombies.c     **** 		);
  21:zombies.c     **** void draw_zombies ( Sprite * sprites );
  22:zombies.c     **** void start_zombies ();
  23:zombies.c     **** void section_selector( int picker );
  24:zombies.c     **** 
  25:zombies.c     **** int randx;
  26:zombies.c     **** int randy;
  27:zombies.c     **** 
  28:zombies.c     **** #define zombie_count (8)
  29:zombies.c     **** 
  30:zombies.c     **** Sprite zombies[zombie_count];
  31:zombies.c     **** Sprite * z = &zombies;
  32:zombies.c     **** byte bitmap1[] = {
  33:zombies.c     **** 		BYTE( 11100000 ),
  34:zombies.c     **** 		BYTE( 01000000 ),
  35:zombies.c     **** 		BYTE( 10100000 )
  36:zombies.c     **** 	};
  37:zombies.c     **** 
  38:zombies.c     **** void start_zombies() {
  39:zombies.c     **** 
  40:zombies.c     **** 
  41:zombies.c     **** 	byte *zbitmaps[1] = { bitmap1 };
  42:zombies.c     **** 	byte width[] = {4};
  43:zombies.c     **** 	byte height[] = {3};
  44:zombies.c     **** 
  45:zombies.c     **** //	Sprite zombies[zombie_count];
  46:zombies.c     **** 
  47:zombies.c     **** 
  48:zombies.c     **** 	setup_zombies ( zombies, zbitmaps, width, height );
  49:zombies.c     **** 
  50:zombies.c     **** 	draw_zombies ( zombies );
  51:zombies.c     **** 
  52:zombies.c     **** }
  53:zombies.c     **** 
  54:zombies.c     **** 
  55:zombies.c     **** void setup_zombies(
  56:zombies.c     **** 	Sprite zombies[],
  57:zombies.c     **** 	byte *zbitmaps[],
  58:zombies.c     **** 	byte width[],
  59:zombies.c     **** 	byte height[]
  60:zombies.c     **** 	) {
  61:zombies.c     **** 
  62:zombies.c     **** 	for ( int i = 0; i < 8; i++ ) {
  63:zombies.c     **** 		Sprite * sprite = &zombies[i];
  64:zombies.c     **** 
  65:zombies.c     **** 		byte * bitmap = zbitmaps[ i % 1];
  66:zombies.c     **** 
  67:zombies.c     **** 		int picker = 1 + rand() % 2; // 1 - 70
  68:zombies.c     **** 		section_selector ( picker );
  69:zombies.c     **** 
  70:zombies.c     **** 		init_sprite ( sprite, randx, randy, 4, 3, bitmap );
  71:zombies.c     **** 		sprite->is_visible = 1;
  72:zombies.c     **** 		sprite->dx = 1;
  73:zombies.c     **** 		sprite->dy = 0;
  74:zombies.c     **** 
  75:zombies.c     **** 
  76:zombies.c     **** 	}
  77:zombies.c     **** }
  78:zombies.c     **** 
  79:zombies.c     **** 
  80:zombies.c     **** void section_selector( int picker ) {
  16               		.loc 1 80 0
  17               		.cfi_startproc
  18               	.LVL0:
  19 0000 CF93      		push r28
  20               	.LCFI0:
  21               		.cfi_def_cfa_offset 3
  22               		.cfi_offset 28, -2
  23 0002 DF93      		push r29
  24               	.LCFI1:
  25               		.cfi_def_cfa_offset 4
  26               		.cfi_offset 29, -3
  27               	/* prologue: function */
  28               	/* frame size = 0 */
  29               	/* stack size = 2 */
  30               	.L__stack_usage = 2
  81:zombies.c     **** 	if ( picker == 1 ) { // Left Section
  31               		.loc 1 81 0
  32 0004 8130      		cpi r24,1
  33 0006 9105      		cpc r25,__zero_reg__
  34 0008 01F4      		brne .L2
  35               	.LBB6:
  82:zombies.c     **** 		randx = (rand()%25)+1; // 1 - 28
  36               		.loc 1 82 0
  37 000a 0E94 0000 		call rand
  38               	.LVL1:
  39 000e 69E1      		ldi r22,lo8(25)
  40 0010 70E0      		ldi r23,0
  41 0012 0E94 0000 		call __divmodhi4
  42 0016 0196      		adiw r24,1
  43 0018 9093 0000 		sts randx+1,r25
  44 001c 8093 0000 		sts randx,r24
  83:zombies.c     **** 		randy = (rand()%30)+14; // 14 - 47
  45               		.loc 1 83 0
  46 0020 0E94 0000 		call rand
  47               	.LVL2:
  48 0024 6EE1      		ldi r22,lo8(30)
  49 0026 70E0      		ldi r23,0
  50 0028 00C0      		rjmp .L4
  51               	.LVL3:
  52               	.L2:
  53               	.LBE6:
  84:zombies.c     **** 	}
  85:zombies.c     **** 	else if ( picker == 2 ) { // Right Section
  54               		.loc 1 85 0
  55 002a 0297      		sbiw r24,2
  56 002c 01F4      		brne .L1
  57               	.LBB7:
  86:zombies.c     **** 		randx = (rand()%30)+51; // 50 - 81
  58               		.loc 1 86 0
  59 002e 0E94 0000 		call rand
  60               	.LVL4:
  61 0032 CEE1      		ldi r28,lo8(30)
  62 0034 D0E0      		ldi r29,0
  63 0036 BE01      		movw r22,r28
  64 0038 0E94 0000 		call __divmodhi4
  65 003c C396      		adiw r24,51
  66 003e 9093 0000 		sts randx+1,r25
  67 0042 8093 0000 		sts randx,r24
  87:zombies.c     **** 		randy = (rand()%30)+14; // 14 - 47
  68               		.loc 1 87 0
  69 0046 0E94 0000 		call rand
  70               	.LVL5:
  71 004a BE01      		movw r22,r28
  72               	.L4:
  73 004c 0E94 0000 		call __divmodhi4
  74 0050 0E96      		adiw r24,14
  75 0052 9093 0000 		sts randy+1,r25
  76 0056 8093 0000 		sts randy,r24
  77               	.L1:
  78               	/* epilogue start */
  79               	.LBE7:
  88:zombies.c     **** 	}
  89:zombies.c     **** }
  80               		.loc 1 89 0
  81 005a DF91      		pop r29
  82 005c CF91      		pop r28
  83 005e 0895      		ret
  84               		.cfi_endproc
  85               	.LFE3:
  87               		.section	.text.setup_zombies,"ax",@progbits
  88               	.global	setup_zombies
  90               	setup_zombies:
  91               	.LFB2:
  60:zombies.c     **** 	) {
  92               		.loc 1 60 0
  93               		.cfi_startproc
  94               	.LVL6:
  95 0000 4F92      		push r4
  96               	.LCFI2:
  97               		.cfi_def_cfa_offset 3
  98               		.cfi_offset 4, -2
  99 0002 5F92      		push r5
 100               	.LCFI3:
 101               		.cfi_def_cfa_offset 4
 102               		.cfi_offset 5, -3
 103 0004 6F92      		push r6
 104               	.LCFI4:
 105               		.cfi_def_cfa_offset 5
 106               		.cfi_offset 6, -4
 107 0006 7F92      		push r7
 108               	.LCFI5:
 109               		.cfi_def_cfa_offset 6
 110               		.cfi_offset 7, -5
 111 0008 8F92      		push r8
 112               	.LCFI6:
 113               		.cfi_def_cfa_offset 7
 114               		.cfi_offset 8, -6
 115 000a 9F92      		push r9
 116               	.LCFI7:
 117               		.cfi_def_cfa_offset 8
 118               		.cfi_offset 9, -7
 119 000c AF92      		push r10
 120               	.LCFI8:
 121               		.cfi_def_cfa_offset 9
 122               		.cfi_offset 10, -8
 123 000e BF92      		push r11
 124               	.LCFI9:
 125               		.cfi_def_cfa_offset 10
 126               		.cfi_offset 11, -9
 127 0010 CF92      		push r12
 128               	.LCFI10:
 129               		.cfi_def_cfa_offset 11
 130               		.cfi_offset 12, -10
 131 0012 DF92      		push r13
 132               	.LCFI11:
 133               		.cfi_def_cfa_offset 12
 134               		.cfi_offset 13, -11
 135 0014 EF92      		push r14
 136               	.LCFI12:
 137               		.cfi_def_cfa_offset 13
 138               		.cfi_offset 14, -12
 139 0016 FF92      		push r15
 140               	.LCFI13:
 141               		.cfi_def_cfa_offset 14
 142               		.cfi_offset 15, -13
 143 0018 0F93      		push r16
 144               	.LCFI14:
 145               		.cfi_def_cfa_offset 15
 146               		.cfi_offset 16, -14
 147 001a 1F93      		push r17
 148               	.LCFI15:
 149               		.cfi_def_cfa_offset 16
 150               		.cfi_offset 17, -15
 151 001c CF93      		push r28
 152               	.LCFI16:
 153               		.cfi_def_cfa_offset 17
 154               		.cfi_offset 28, -16
 155 001e DF93      		push r29
 156               	.LCFI17:
 157               		.cfi_def_cfa_offset 18
 158               		.cfi_offset 29, -17
 159               	/* prologue: function */
 160               	/* frame size = 0 */
 161               	/* stack size = 16 */
 162               	.L__stack_usage = 16
 163 0020 4B01      		movw r8,r22
 164               	.LVL7:
 165 0022 EC01      		movw r28,r24
  60:zombies.c     **** 	) {
 166               		.loc 1 60 0
 167 0024 88E0      		ldi r24,lo8(8)
 168 0026 C82E      		mov r12,r24
 169 0028 D12C      		mov r13,__zero_reg__
 170               	.LVL8:
 171               	.LBB8:
 172               	.LBB9:
  67:zombies.c     **** 		int picker = 1 + rand() % 2; // 1 - 70
 173               		.loc 1 67 0
 174 002a 92E0      		ldi r25,lo8(2)
 175 002c A92E      		mov r10,r25
 176 002e B12C      		mov r11,__zero_reg__
  71:zombies.c     **** 		sprite->is_visible = 1;
 177               		.loc 1 71 0
 178 0030 11E0      		ldi r17,lo8(1)
  72:zombies.c     **** 		sprite->dx = 1;
 179               		.loc 1 72 0
 180 0032 412C      		mov r4,__zero_reg__
 181 0034 512C      		mov r5,__zero_reg__
 182 0036 20E8      		ldi r18,lo8(-128)
 183 0038 622E      		mov r6,r18
 184 003a 2FE3      		ldi r18,lo8(63)
 185 003c 722E      		mov r7,r18
 186               	.LVL9:
 187               	.L6:
  65:zombies.c     **** 		byte * bitmap = zbitmaps[ i % 1];
 188               		.loc 1 65 0 discriminator 2
 189 003e F401      		movw r30,r8
 190 0040 E080      		ld r14,Z
 191 0042 F180      		ldd r15,Z+1
 192               	.LVL10:
  67:zombies.c     **** 		int picker = 1 + rand() % 2; // 1 - 70
 193               		.loc 1 67 0 discriminator 2
 194 0044 0E94 0000 		call rand
 195               	.LVL11:
 196 0048 B501      		movw r22,r10
 197 004a 0E94 0000 		call __divmodhi4
 198               	.LVL12:
  68:zombies.c     **** 		section_selector ( picker );
 199               		.loc 1 68 0 discriminator 2
 200 004e 0196      		adiw r24,1
 201 0050 0E94 0000 		call section_selector
 202               	.LVL13:
  70:zombies.c     **** 		init_sprite ( sprite, randx, randy, 4, 3, bitmap );
 203               		.loc 1 70 0 discriminator 2
 204 0054 03E0      		ldi r16,lo8(3)
 205 0056 24E0      		ldi r18,lo8(4)
 206 0058 4091 0000 		lds r20,randy
 207 005c 6091 0000 		lds r22,randx
 208 0060 CE01      		movw r24,r28
 209 0062 0E94 0000 		call init_sprite
 210               	.LVL14:
  71:zombies.c     **** 		sprite->is_visible = 1;
 211               		.loc 1 71 0 discriminator 2
 212 0066 1A87      		std Y+10,r17
  72:zombies.c     **** 		sprite->dx = 1;
 213               		.loc 1 72 0 discriminator 2
 214 0068 4D86      		std Y+13,r4
 215 006a 5E86      		std Y+14,r5
 216 006c 6F86      		std Y+15,r6
 217 006e 788A      		std Y+16,r7
  73:zombies.c     **** 		sprite->dy = 0;
 218               		.loc 1 73 0 discriminator 2
 219 0070 198A      		std Y+17,__zero_reg__
 220 0072 1A8A      		std Y+18,__zero_reg__
 221 0074 1B8A      		std Y+19,__zero_reg__
 222 0076 1C8A      		std Y+20,__zero_reg__
 223 0078 F1E0      		ldi r31,1
 224 007a CF1A      		sub r12,r31
 225 007c D108      		sbc r13,__zero_reg__
 226 007e 6596      		adiw r28,21
 227               	.LVL15:
 228               	.LBE9:
  62:zombies.c     **** 	for ( int i = 0; i < 8; i++ ) {
 229               		.loc 1 62 0 discriminator 2
 230 0080 C114      		cp r12,__zero_reg__
 231 0082 D104      		cpc r13,__zero_reg__
 232 0084 01F4      		brne .L6
 233               	/* epilogue start */
 234               	.LBE8:
  77:zombies.c     **** }
 235               		.loc 1 77 0
 236 0086 DF91      		pop r29
 237 0088 CF91      		pop r28
 238               	.LVL16:
 239 008a 1F91      		pop r17
 240 008c 0F91      		pop r16
 241 008e FF90      		pop r15
 242 0090 EF90      		pop r14
 243               	.LVL17:
 244 0092 DF90      		pop r13
 245 0094 CF90      		pop r12
 246 0096 BF90      		pop r11
 247 0098 AF90      		pop r10
 248 009a 9F90      		pop r9
 249 009c 8F90      		pop r8
 250               	.LVL18:
 251 009e 7F90      		pop r7
 252 00a0 6F90      		pop r6
 253 00a2 5F90      		pop r5
 254 00a4 4F90      		pop r4
 255 00a6 0895      		ret
 256               		.cfi_endproc
 257               	.LFE2:
 259               		.section	.text.draw_zombies,"ax",@progbits
 260               	.global	draw_zombies
 262               	draw_zombies:
 263               	.LFB4:
  90:zombies.c     **** 
  91:zombies.c     **** void draw_zombies ( Sprite * sprites ) {
 264               		.loc 1 91 0
 265               		.cfi_startproc
 266               	.LVL19:
 267 0000 0F93      		push r16
 268               	.LCFI18:
 269               		.cfi_def_cfa_offset 3
 270               		.cfi_offset 16, -2
 271 0002 1F93      		push r17
 272               	.LCFI19:
 273               		.cfi_def_cfa_offset 4
 274               		.cfi_offset 17, -3
 275 0004 CF93      		push r28
 276               	.LCFI20:
 277               		.cfi_def_cfa_offset 5
 278               		.cfi_offset 28, -4
 279 0006 DF93      		push r29
 280               	.LCFI21:
 281               		.cfi_def_cfa_offset 6
 282               		.cfi_offset 29, -5
 283               	/* prologue: function */
 284               	/* frame size = 0 */
 285               	/* stack size = 4 */
 286               	.L__stack_usage = 4
 287 0008 8C01      		movw r16,r24
 288               	.LVL20:
 289               		.loc 1 91 0
 290 000a C0E0      		ldi r28,0
 291 000c D0E0      		ldi r29,0
 292               	.LVL21:
 293               	.L9:
 294               	.LBB10:
  92:zombies.c     **** 	for ( int i = 0; i < zombie_count; i++ ) {
  93:zombies.c     **** 		draw_sprite ( sprites + i );
 295               		.loc 1 93 0 discriminator 2
 296 000e C801      		movw r24,r16
 297 0010 8C0F      		add r24,r28
 298 0012 9D1F      		adc r25,r29
 299 0014 0E94 0000 		call draw_sprite
 300               	.LVL22:
 301 0018 6596      		adiw r28,21
  92:zombies.c     **** 	for ( int i = 0; i < zombie_count; i++ ) {
 302               		.loc 1 92 0 discriminator 2
 303 001a C83A      		cpi r28,-88
 304 001c D105      		cpc r29,__zero_reg__
 305 001e 01F4      		brne .L9
 306               	/* epilogue start */
 307               	.LBE10:
  94:zombies.c     **** 	}
  95:zombies.c     **** }
 308               		.loc 1 95 0
 309 0020 DF91      		pop r29
 310 0022 CF91      		pop r28
 311 0024 1F91      		pop r17
 312 0026 0F91      		pop r16
 313               	.LVL23:
 314 0028 0895      		ret
 315               		.cfi_endproc
 316               	.LFE4:
 318               		.section	.text.start_zombies,"ax",@progbits
 319               	.global	start_zombies
 321               	start_zombies:
 322               	.LFB1:
  38:zombies.c     **** void start_zombies() {
 323               		.loc 1 38 0
 324               		.cfi_startproc
 325 0000 CF93      		push r28
 326               	.LCFI22:
 327               		.cfi_def_cfa_offset 3
 328               		.cfi_offset 28, -2
 329 0002 DF93      		push r29
 330               	.LCFI23:
 331               		.cfi_def_cfa_offset 4
 332               		.cfi_offset 29, -3
 333 0004 00D0      		rcall .
 334 0006 00D0      		rcall .
 335               	.LCFI24:
 336               		.cfi_def_cfa_offset 8
 337 0008 CDB7      		in r28,__SP_L__
 338 000a DEB7      		in r29,__SP_H__
 339               	.LCFI25:
 340               		.cfi_def_cfa_register 28
 341               	/* prologue: function */
 342               	/* frame size = 4 */
 343               	/* stack size = 6 */
 344               	.L__stack_usage = 6
  41:zombies.c     **** 	byte *zbitmaps[1] = { bitmap1 };
 345               		.loc 1 41 0
 346 000c 80E0      		ldi r24,lo8(bitmap1)
 347 000e 90E0      		ldi r25,hi8(bitmap1)
 348 0010 9A83      		std Y+2,r25
 349 0012 8983      		std Y+1,r24
  42:zombies.c     **** 	byte width[] = {4};
 350               		.loc 1 42 0
 351 0014 84E0      		ldi r24,lo8(4)
 352 0016 8C83      		std Y+4,r24
  43:zombies.c     **** 	byte height[] = {3};
 353               		.loc 1 43 0
 354 0018 83E0      		ldi r24,lo8(3)
 355 001a 8B83      		std Y+3,r24
  48:zombies.c     **** 	setup_zombies ( zombies, zbitmaps, width, height );
 356               		.loc 1 48 0
 357 001c 9E01      		movw r18,r28
 358 001e 2D5F      		subi r18,-3
 359 0020 3F4F      		sbci r19,-1
 360 0022 AE01      		movw r20,r28
 361 0024 4C5F      		subi r20,-4
 362 0026 5F4F      		sbci r21,-1
 363 0028 BE01      		movw r22,r28
 364 002a 6F5F      		subi r22,-1
 365 002c 7F4F      		sbci r23,-1
 366 002e 80E0      		ldi r24,lo8(zombies)
 367 0030 90E0      		ldi r25,hi8(zombies)
 368 0032 0E94 0000 		call setup_zombies
 369               	.LVL24:
  50:zombies.c     **** 	draw_zombies ( zombies );
 370               		.loc 1 50 0
 371 0036 80E0      		ldi r24,lo8(zombies)
 372 0038 90E0      		ldi r25,hi8(zombies)
 373 003a 0E94 0000 		call draw_zombies
 374               	.LVL25:
 375               	/* epilogue start */
  52:zombies.c     **** }
 376               		.loc 1 52 0
 377 003e 0F90      		pop __tmp_reg__
 378 0040 0F90      		pop __tmp_reg__
 379 0042 0F90      		pop __tmp_reg__
 380 0044 0F90      		pop __tmp_reg__
 381 0046 DF91      		pop r29
 382 0048 CF91      		pop r28
 383 004a 0895      		ret
 384               		.cfi_endproc
 385               	.LFE1:
 387               		.section	.text.update_zombies,"ax",@progbits
 388               	.global	update_zombies
 390               	update_zombies:
 391               	.LFB6:
  96:zombies.c     **** 
  97:zombies.c     **** void zombie_updater() {
  98:zombies.c     **** 	update_zombies( zombies );
  99:zombies.c     **** 	draw_zombies( zombies );
 100:zombies.c     **** }
 101:zombies.c     **** 
 102:zombies.c     **** void update_zombies ( Sprite * sprites ) {
 392               		.loc 1 102 0
 393               		.cfi_startproc
 394               	.LVL26:
 395 0000 0F93      		push r16
 396               	.LCFI26:
 397               		.cfi_def_cfa_offset 3
 398               		.cfi_offset 16, -2
 399 0002 1F93      		push r17
 400               	.LCFI27:
 401               		.cfi_def_cfa_offset 4
 402               		.cfi_offset 17, -3
 403               	/* prologue: function */
 404               	/* frame size = 0 */
 405               	/* stack size = 2 */
 406               	.L__stack_usage = 2
 407 0004 FC01      		movw r30,r24
 408               	.LVL27:
 409               	.LBB11:
 410               	.LBB12:
 411               	.LBB13:
 412               	.LBB14:
 103:zombies.c     **** 	// pick a direction to move in
 104:zombies.c     **** 	for ( int i = 0; i < zombie_count; i++ ) {
 105:zombies.c     **** 		update_one_zombie( sprites + 1);
 106:zombies.c     **** 
 107:zombies.c     **** 	}
 108:zombies.c     **** }
 109:zombies.c     **** 
 110:zombies.c     **** void update_one_zombie ( Sprite * zombie ) {
 111:zombies.c     **** 	zombie->x = zombie->dx;
 112:zombies.c     **** 	zombie->y = zombie->dy;
 413               		.loc 1 112 0
 414 0006 46A1      		ldd r20,Z+38
 415 0008 57A1      		ldd r21,Z+39
 416 000a 60A5      		ldd r22,Z+40
 417 000c 71A5      		ldd r23,Z+41
 418               	.LVL28:
 419 000e 02A1      		ldd r16,Z+34
 420 0010 13A1      		ldd r17,Z+35
 421 0012 24A1      		ldd r18,Z+36
 422 0014 35A1      		ldd r19,Z+37
 423 0016 058B      		std Z+21,r16
 424 0018 168B      		std Z+22,r17
 425 001a 278B      		std Z+23,r18
 426 001c 308F      		std Z+24,r19
 427 001e 418F      		std Z+25,r20
 428 0020 528F      		std Z+26,r21
 429 0022 638F      		std Z+27,r22
 430 0024 748F      		std Z+28,r23
 431               	/* epilogue start */
 432               	.LBE14:
 433               	.LBE13:
 434               	.LBE12:
 435               	.LBE11:
 108:zombies.c     **** }
 436               		.loc 1 108 0
 437 0026 1F91      		pop r17
 438 0028 0F91      		pop r16
 439 002a 0895      		ret
 440               		.cfi_endproc
 441               	.LFE6:
 443               		.section	.text.zombie_updater,"ax",@progbits
 444               	.global	zombie_updater
 446               	zombie_updater:
 447               	.LFB5:
  97:zombies.c     **** void zombie_updater() {
 448               		.loc 1 97 0
 449               		.cfi_startproc
 450               	/* prologue: function */
 451               	/* frame size = 0 */
 452               	/* stack size = 0 */
 453               	.L__stack_usage = 0
  98:zombies.c     **** 	update_zombies( zombies );
 454               		.loc 1 98 0
 455 0000 80E0      		ldi r24,lo8(zombies)
 456 0002 90E0      		ldi r25,hi8(zombies)
 457 0004 0E94 0000 		call update_zombies
 458               	.LVL29:
  99:zombies.c     **** 	draw_zombies( zombies );
 459               		.loc 1 99 0
 460 0008 80E0      		ldi r24,lo8(zombies)
 461 000a 90E0      		ldi r25,hi8(zombies)
 462 000c 0C94 0000 		jmp draw_zombies
 463               	.LVL30:
 464               		.cfi_endproc
 465               	.LFE5:
 467               		.section	.text.update_one_zombie,"ax",@progbits
 468               	.global	update_one_zombie
 470               	update_one_zombie:
 471               	.LFB7:
 110:zombies.c     **** void update_one_zombie ( Sprite * zombie ) {
 472               		.loc 1 110 0
 473               		.cfi_startproc
 474               	.LVL31:
 475               	/* prologue: function */
 476               	/* frame size = 0 */
 477               	/* stack size = 0 */
 478               	.L__stack_usage = 0
 479 0000 FC01      		movw r30,r24
 111:zombies.c     **** 	zombie->x = zombie->dx;
 480               		.loc 1 111 0
 481 0002 4585      		ldd r20,Z+13
 482 0004 5685      		ldd r21,Z+14
 483 0006 6785      		ldd r22,Z+15
 484 0008 7089      		ldd r23,Z+16
 485 000a 4083      		st Z,r20
 486 000c 5183      		std Z+1,r21
 487 000e 6283      		std Z+2,r22
 488 0010 7383      		std Z+3,r23
 489               		.loc 1 112 0
 490 0012 4189      		ldd r20,Z+17
 491 0014 5289      		ldd r21,Z+18
 492 0016 6389      		ldd r22,Z+19
 493 0018 7489      		ldd r23,Z+20
 494 001a 4483      		std Z+4,r20
 495 001c 5583      		std Z+5,r21
 496 001e 6683      		std Z+6,r22
 497 0020 7783      		std Z+7,r23
 498 0022 0895      		ret
 499               		.cfi_endproc
 500               	.LFE7:
 502               	.global	bitmap1
 503               		.data
 506               	bitmap1:
 507 0000 E0        		.byte	-32
 508 0001 40        		.byte	64
 509 0002 A0        		.byte	-96
 510               		.comm	randy,2,1
 511               		.comm	randx,2,1
 512               	.global	z
 515               	z:
 516 0003 0000      		.word	zombies
 517               		.comm	zombies,168,1
 518               		.text
 519               	.Letext0:
 520               		.file 2 "../teensy_graphics/sprite.h"
 521               		.file 3 "../teensy_graphics/byte.h"
 522               		.file 4 "../teensy_graphics/ascii_font.h"